target datalayout = "e-m:e-p270:32:32-p271:32:32-p272:64:64-i64:64-i128:128-f80:128-n8:16:32:64-S128"
target triple = "x86_64-pc-linux-gnu"

%struct.lstopo_cairo_output = type { ptr, ptr, ptr }
%struct.lstopo_output = type { ptr, i32, i32, i32, ptr, i32, i32, i32, i32, i32, i32, i32, i32, ptr, ptr, i32, i32, i64, i64, i64, i32, [3 x [128 x i8]], i32, i32, ptr, i32, i32, i32, i32, i32, i32, %struct.hwloc_calc_level, i32, i32, i32, i64, [256 x i8], i32, i32, i32, i32, i32, float, [20 x i32], i32, i32, i32, [20 x i32], i32, [20 x i32], i32, [20 x i32], i32, i32, i32, i32, ptr, ptr, i32, [20 x i32], [20 x i32], [20 x i32], ptr, ptr, i64, ptr, i32, i32, i32 }
%struct.hwloc_calc_level = type { i32, i32, %union.hwloc_obj_attr_u, [32 x i8], i32, i32, i32, i32 }
%union.hwloc_obj_attr_u = type { %struct.hwloc_numanode_attr_s, [24 x i8] }
%struct.hwloc_numanode_attr_s = type { i64, i32, ptr }
%struct.cairo_text_extents_t = type { double, double, double, double, double, double }

; Function Attrs: nounwind uwtable
define internal void @topo_cairo_textsize(ptr noundef %0, ptr noundef %1, i32 noundef %2, i32 noundef %3, ptr noundef %4) #0 {
  %6 = alloca ptr, align 8
  %7 = alloca ptr, align 8
  %8 = alloca i32, align 4
  %9 = alloca i32, align 4
  %10 = alloca ptr, align 8
  %11 = alloca ptr, align 8
  %12 = alloca ptr, align 8
  %13 = alloca %struct.cairo_text_extents_t, align 8
  store ptr %0, ptr %6, align 8, !tbaa !4
  store ptr %1, ptr %7, align 8, !tbaa !9
  store i32 %2, ptr %8, align 4, !tbaa !13
  store i32 %3, ptr %9, align 4, !tbaa !13
  store ptr %4, ptr %10, align 8, !tbaa !120
  call void @llvm.lifetime.start.p0(i64 8, ptr %11) #10
  %14 = load ptr, ptr %6, align 8, !tbaa !4
  %15 = getelementptr inbounds nuw %struct.lstopo_output, ptr %14, i32 0, i32 63
  %16 = load ptr, ptr %15, align 8, !tbaa !21
  store ptr %16, ptr %11, align 8, !tbaa !15
  call void @llvm.lifetime.start.p0(i64 8, ptr %12) #10
  %17 = load ptr, ptr %11, align 8, !tbaa !15
  %18 = getelementptr inbounds nuw %struct.lstopo_cairo_output, ptr %17, i32 0, i32 2
  %19 = load ptr, ptr %18, align 8, !tbaa !105
  store ptr %19, ptr %12, align 8, !tbaa !104
  call void @llvm.lifetime.start.p0(i64 48, ptr %13) #10
  %20 = load ptr, ptr %12, align 8, !tbaa !104
  %21 = load ptr, ptr %7, align 8, !tbaa !9
  call void @cairo_text_extents(ptr noundef %20, ptr noundef %21, ptr noundef %13)
  %22 = getelementptr inbounds nuw %struct.cairo_text_extents_t, ptr %13, i32 0, i32 2
  %23 = load double, ptr %22, align 8, !tbaa !122
  %24 = fptoui double %23 to i32
  %25 = load ptr, ptr %10, align 8, !tbaa !120
  store i32 %24, ptr %25, align 4, !tbaa !13
  call void @llvm.lifetime.end.p0(i64 48, ptr %13) #10
  call void @llvm.lifetime.end.p0(i64 8, ptr %12) #10
  call void @llvm.lifetime.end.p0(i64 8, ptr %11) #10
  ret void
}