; Function Attrs: nounwind uwtable
define internal void @topo_cairo_textsize(ptr noundef readonly captures(none) %0, ptr noundef %1, i32 %2, i32 %3, ptr noundef writeonly captures(none) initializes((0, 4)) %4) #0 {
  %6 = alloca %struct.cairo_text_extents_t, align 8
  %7 = getelementptr inbounds nuw i8, ptr %0, i64 1584
  %8 = load ptr, ptr %7, align 8, !tbaa !12
  %9 = getelementptr inbounds nuw i8, ptr %8, i64 16
  %10 = load ptr, ptr %9, align 8, !tbaa !55
  call void @llvm.lifetime.start.p0(i64 48, ptr nonnull %6) #13
  call void @cairo_text_extents(ptr noundef %10, ptr noundef %1, ptr noundef nonnull %6) #13
  %11 = getelementptr inbounds nuw i8, ptr %6, i64 16
  %12 = load double, ptr %11, align 8, !tbaa !119
  %13 = fptoui double %12 to i32
  store i32 %13, ptr %4, align 4, !tbaa !97
  call void @llvm.lifetime.end.p0(i64 48, ptr nonnull %6) #13
  ret void
}